target datalayout = "e-m:e-p270:32:32-p271:32:32-p272:64:64-i64:64-i128:128-f80:128-n8:16:32:64-S128"
target triple = "x86_64-pc-linux-gnu"

%struct.ControllerDescription_t = type { i32, i32, ptr }

; Function Attrs: nounwind uwtable
define hidden ptr @GuessControllerName(i32 noundef %0, i32 noundef %1) #0 {
  %3 = alloca ptr, align 8
  %4 = alloca i32, align 4
  %5 = alloca i32, align 4
  %6 = alloca i32, align 4
  %7 = alloca i32, align 4
  %8 = alloca i32, align 4
  store i32 %0, ptr %4, align 4
  store i32 %1, ptr %5, align 4
  call void @llvm.lifetime.start.p0(i64 4, ptr %6) #3
  %9 = load i32, ptr %4, align 4
  %10 = shl i32 %9, 16
  %11 = load i32, ptr %5, align 4
  %12 = or i32 %10, %11
  store i32 %12, ptr %6, align 4
  call void @llvm.lifetime.start.p0(i64 4, ptr %7) #3
  store i32 0, ptr %7, align 4
  br label %13

13:                                               ; preds = %32, %2
  %14 = load i32, ptr %7, align 4
  %15 = sext i32 %14 to i64
  %16 = icmp ult i64 %15, 532
  br i1 %16, label %17, label %35

17:                                               ; preds = %13
  %18 = load i32, ptr %6, align 4
  %19 = load i32, ptr %7, align 4
  %20 = sext i32 %19 to i64
  %21 = getelementptr inbounds [532 x %struct.ControllerDescription_t], ptr @arrControllers, i64 0, i64 %20
  %22 = getelementptr inbounds nuw %struct.ControllerDescription_t, ptr %21, i32 0, i32 0
  %23 = load i32, ptr %22, align 16
  %24 = icmp eq i32 %18, %23
  br i1 %24, label %25, label %31

25:                                               ; preds = %17
  %26 = load i32, ptr %7, align 4
  %27 = sext i32 %26 to i64
  %28 = getelementptr inbounds [532 x %struct.ControllerDescription_t], ptr @arrControllers, i64 0, i64 %27
  %29 = getelementptr inbounds nuw %struct.ControllerDescription_t, ptr %28, i32 0, i32 2
  %30 = load ptr, ptr %29, align 8
  store ptr %30, ptr %3, align 8
  store i32 1, ptr %8, align 4
  br label %36

31:                                               ; preds = %17
  br label %32

32:                                               ; preds = %31
  %33 = load i32, ptr %7, align 4
  %34 = add nsw i32 %33, 1
  store i32 %34, ptr %7, align 4
  br label %13, !llvm.loop !5

35:                                               ; preds = %13
  store ptr null, ptr %3, align 8
  store i32 1, ptr %8, align 4
  br label %36

36:                                               ; preds = %35, %25
  call void @llvm.lifetime.end.p0(i64 4, ptr %7) #3
  call void @llvm.lifetime.end.p0(i64 4, ptr %6) #3
  %37 = load ptr, ptr %3, align 8
  ret ptr %37
}