; Function Attrs: nofree norecurse nosync nounwind memory(none) uwtable
define hidden ptr @GuessControllerName(i32 noundef %0, i32 noundef %1) local_unnamed_addr #3 {
  %3 = shl i32 %0, 16
  %4 = or i32 %3, %1
  br label %6

5:                                                ; preds = %6
  %indvars.iv.next = add nuw nsw i64 %indvars.iv, 1
  %exitcond.not = icmp eq i64 %indvars.iv.next, 532
  br i1 %exitcond.not, label %.loopexit, label %6, !llvm.loop !5

6:                                                ; preds = %2, %5
  %indvars.iv = phi i64 [ 0, %2 ], [ %indvars.iv.next, %5 ]
  %7 = getelementptr inbounds nuw [532 x %struct.ControllerDescription_t], ptr @arrControllers, i64 0, i64 %indvars.iv
  %8 = load i32, ptr %7, align 16
  %9 = icmp eq i32 %4, %8
  br i1 %9, label %10, label %5

10:                                               ; preds = %6
  %11 = getelementptr inbounds nuw i8, ptr %7, i64 8
  %12 = load ptr, ptr %11, align 8
  br label %.loopexit

.loopexit:                                        ; preds = %5, %10
  %.07 = phi ptr [ %12, %10 ], [ null, %5 ]
  ret ptr %.07
}